; Function Attrs: mustprogress uwtable
define hidden void @_ZN6cvtest6getMatERKN2cv11_InputArrayE(ptr dead_on_unwind noalias writable sret(%"class.cv::Mat") align 8 %0, ptr noundef nonnull align 8 dereferenceable(24) %1) local_unnamed_addr #4 personality ptr @__gxx_personality_v0 {
  %3 = alloca %"class.cv::cuda::GpuMat", align 8
  %4 = alloca %"class.cv::_OutputArray", align 8
  %5 = tail call noundef i32 @_ZNK2cv11_InputArray4kindEv(ptr noundef nonnull align 8 dereferenceable(24) %1)
  %6 = icmp eq i32 %5, 589824
  br i1 %6, label %7, label %22

7:                                                ; preds = %2
  tail call void @_ZN2cv3MatC1Ev(ptr noundef nonnull align 8 dereferenceable(96) %0) #27
  call void @llvm.lifetime.start.p0(i64 64, ptr nonnull %3) #27
  invoke void @_ZNK2cv11_InputArray9getGpuMatEv(ptr dead_on_unwind nonnull writable sret(%"class.cv::cuda::GpuMat") align 8 %3, ptr noundef nonnull align 8 dereferenceable(24) %1)
          to label %8 unwind label %15

8:                                                ; preds = %7
  call void @llvm.lifetime.start.p0(i64 24, ptr nonnull %4) #27
  %9 = getelementptr inbounds nuw i8, ptr %4, i64 8
  %10 = getelementptr inbounds nuw i8, ptr %4, i64 16
  store i64 0, ptr %10, align 8
  store i32 33619968, ptr %4, align 8, !tbaa !44
  store ptr %0, ptr %9, align 8, !tbaa !46
  invoke void @_ZNK2cv4cuda6GpuMat8downloadERKNS_12_OutputArrayE(ptr noundef nonnull align 8 dereferenceable(64) %3, ptr noundef nonnull align 8 dereferenceable(24) %4)
          to label %11 unwind label %17

11:                                               ; preds = %8
  call void @llvm.lifetime.end.p0(i64 24, ptr nonnull %4) #27
  invoke void @_ZN2cv4cuda6GpuMat7releaseEv(ptr noundef nonnull align 8 dereferenceable(64) %3)
          to label %_ZN2cv4cuda6GpuMatD2Ev.exit unwind label %12

12:                                               ; preds = %11
  %13 = landingpad { ptr, i32 }
          catch ptr null
  %14 = extractvalue { ptr, i32 } %13, 0
  call void @__clang_call_terminate(ptr %14) #28
  unreachable

_ZN2cv4cuda6GpuMatD2Ev.exit:                      ; preds = %11
  call void @llvm.lifetime.end.p0(i64 64, ptr nonnull %3) #27
  br label %_ZNK2cv11_InputArray6getMatEi.exit

15:                                               ; preds = %7
  %16 = landingpad { ptr, i32 }
          cleanup
  br label %_ZN2cv4cuda6GpuMatD2Ev.exit9

17:                                               ; preds = %8
  %18 = landingpad { ptr, i32 }
          cleanup
  call void @llvm.lifetime.end.p0(i64 24, ptr nonnull %4) #27
  invoke void @_ZN2cv4cuda6GpuMat7releaseEv(ptr noundef nonnull align 8 dereferenceable(64) %3)
          to label %_ZN2cv4cuda6GpuMatD2Ev.exit9 unwind label %19

19:                                               ; preds = %17
  %20 = landingpad { ptr, i32 }
          catch ptr null
  %21 = extractvalue { ptr, i32 } %20, 0
  call void @__clang_call_terminate(ptr %21) #28
  unreachable

_ZN2cv4cuda6GpuMatD2Ev.exit9:                     ; preds = %17, %15
  %.pn.pn = phi { ptr, i32 } [ %16, %15 ], [ %18, %17 ]
  call void @llvm.lifetime.end.p0(i64 64, ptr nonnull %3) #27
  call void @_ZN2cv3MatD1Ev(ptr noundef nonnull align 8 dereferenceable(96) %0) #27
  resume { ptr, i32 } %.pn.pn

22:                                               ; preds = %2
  %23 = tail call noundef i32 @_ZNK2cv11_InputArray4kindEv(ptr noundef nonnull align 8 dereferenceable(24) %1), !noalias !107
  %24 = icmp eq i32 %23, 65536
  br i1 %24, label %25, label %28

25:                                               ; preds = %22
  %26 = getelementptr inbounds nuw i8, ptr %1, i64 8
  %27 = load ptr, ptr %26, align 8, !tbaa !46, !noalias !107
  tail call void @_ZN2cv3MatC1ERKS0_(ptr noundef nonnull align 8 dereferenceable(96) %0, ptr noundef nonnull align 8 dereferenceable(96) %27)
  br label %_ZNK2cv11_InputArray6getMatEi.exit

28:                                               ; preds = %22
  tail call void @_ZNK2cv11_InputArray7getMat_Ei(ptr dead_on_unwind writable sret(%"class.cv::Mat") align 8 %0, ptr noundef nonnull align 8 dereferenceable(24) %1, i32 noundef -1)
  br label %_ZNK2cv11_InputArray6getMatEi.exit

_ZNK2cv11_InputArray6getMatEi.exit:               ; preds = %28, %25, %_ZN2cv4cuda6GpuMatD2Ev.exit
  ret void
}